; Function Attrs: mustprogress uwtable
define internal { ptr, ptr } @_ZNSt17_Function_handlerIFN3gmx8ArrayRefIfEEvEZNS0_L13getConnectionILNS0_16IntegrationStageE3EEENS0_20PropagatorConnectionEPNS0_10PropagatorIXT_EEERKNS0_13PropagatorTagEEUlvE1_E9_M_invokeERKSt9_Any_data(ptr nocapture noundef nonnull readonly align 8 dereferenceable(16) %0) #0 align 2 {
  %.val = load ptr, ptr %0, align 8
  %2 = getelementptr i8, ptr %.val, i64 56
  %.val.val = load ptr, ptr %2, align 8
  %3 = getelementptr i8, ptr %.val, i64 64
  %.val.val1 = load ptr, ptr %3, align 8
  %4 = icmp eq ptr %.val.val, %.val.val1
  br i1 %4, label %5, label %_ZSt10__invoke_rIN3gmx8ArrayRefIfEERZNS0_L13getConnectionILNS0_16IntegrationStageE3EEENS0_20PropagatorConnectionEPNS0_10PropagatorIXT_EEERKNS0_13PropagatorTagEEUlvE1_JEENSt9enable_ifIX16is_invocable_r_vIT_T0_DpT1_EESF_E4typeEOSG_DpOSH_.exit

5:                                                ; preds = %1
  tail call void @_ZN3gmx8internal13assertHandlerEPKcS2_S2_S2_i(ptr noundef nonnull @.str.73, ptr noundef nonnull @.str.70, ptr noundef nonnull @__PRETTY_FUNCTION__._ZZN3gmx10PropagatorILNS_16IntegrationStageE3EE24viewOnEndVelocityScalingEvENKUlvE0_clEv, ptr noundef nonnull @.str.53, i32 noundef 820) #22
  unreachable

_ZSt10__invoke_rIN3gmx8ArrayRefIfEERZNS0_L13getConnectionILNS0_16IntegrationStageE3EEENS0_20PropagatorConnectionEPNS0_10PropagatorIXT_EEERKNS0_13PropagatorTagEEUlvE1_JEENSt9enable_ifIX16is_invocable_r_vIT_T0_DpT1_EESF_E4typeEOSG_DpOSH_.exit: ; preds = %1
  %6 = ptrtoint ptr %.val.val1 to i64
  %7 = ptrtoint ptr %.val.val to i64
  %8 = sub i64 %6, %7
  %9 = getelementptr inbounds i8, ptr %.val.val, i64 %8
  %.fca.0.insert.i.i.i.i = insertvalue { ptr, ptr } poison, ptr %.val.val, 0
  %.fca.1.insert.i.i.i.i = insertvalue { ptr, ptr } %.fca.0.insert.i.i.i.i, ptr %9, 1
  ret { ptr, ptr } %.fca.1.insert.i.i.i.i
}